; Function Attrs: mustprogress uwtable
define hidden void @_Z14luaD_reallocCIP9lua_Statei(ptr noundef %0, i32 noundef %1) local_unnamed_addr #0 {
  %3 = icmp sgt i32 %1, -1
  br i1 %3, label %4, label %25

4:                                                ; preds = %2
  %5 = zext nneg i32 %1 to i64
  %6 = getelementptr inbounds nuw i8, ptr %0, i64 76
  %7 = load i32, ptr %6, align 4, !tbaa !53
  %8 = sext i32 %7 to i64
  %9 = mul nsw i64 %8, 40
  %10 = getelementptr inbounds nuw i8, ptr %0, i64 64
  %11 = load ptr, ptr %10, align 8, !tbaa !43
  %12 = mul nuw nsw i64 %5, 40
  %13 = getelementptr inbounds nuw i8, ptr %0, i64 2
  %14 = load i8, ptr %13, align 2, !tbaa !40
  %15 = tail call noundef ptr @_Z13luaM_realloc_P9lua_StatePvmmh(ptr noundef %0, ptr noundef %11, i64 noundef %9, i64 noundef %12, i8 noundef zeroext %14)
  store ptr %15, ptr %10, align 8, !tbaa !43
  store i32 %1, ptr %6, align 4, !tbaa !53
  %16 = getelementptr inbounds nuw i8, ptr %0, i64 32
  %17 = load ptr, ptr %16, align 8, !tbaa !22
  %18 = ptrtoint ptr %17 to i64
  %19 = ptrtoint ptr %11 to i64
  %20 = sub i64 %18, %19
  %21 = getelementptr inbounds i8, ptr %15, i64 %20
  store ptr %21, ptr %16, align 8, !tbaa !22
  %22 = getelementptr inbounds nuw %struct.CallInfo, ptr %15, i64 %5
  %23 = getelementptr inbounds i8, ptr %22, i64 -40
  %24 = getelementptr inbounds nuw i8, ptr %0, i64 56
  store ptr %23, ptr %24, align 8, !tbaa !54
  ret void

25:                                               ; preds = %2
  tail call void @_Z11luaM_toobigP9lua_State(ptr noundef %0) #18
  unreachable
}